; Function Attrs: nounwind uwtable
define ptr @l_Lean_Lsp_instFromJsonCompletionItemTag(ptr noundef %0) local_unnamed_addr #0 {
  %2 = tail call ptr @l_Lean_Json_getNat_x3f(ptr noundef %0) #9
  %3 = ptrtoint ptr %2 to i64
  %4 = and i64 %3, 1
  %.not.i16 = icmp eq i64 %4, 0
  br i1 %.not.i16, label %lean_obj_tag.exit.thread, label %lean_obj_tag.exit

lean_obj_tag.exit:                                ; preds = %1
  %5 = and i64 %3, 8589934590
  %6 = icmp eq i64 %5, 0
  br i1 %6, label %9, label %lean_dec.exit

lean_obj_tag.exit.thread:                         ; preds = %1
  %7 = getelementptr i8, ptr %2, i64 4
  %.val.i = load i32, ptr %7, align 4
  %8 = icmp ult i32 %.val.i, 16777216
  br i1 %8, label %9, label %.thread

9:                                                ; preds = %lean_obj_tag.exit.thread, %lean_obj_tag.exit
  %.val = load i32, ptr %2, align 4, !tbaa !8
  %10 = icmp eq i32 %.val, 1
  br i1 %10, label %41, label %11

11:                                               ; preds = %9
  %12 = getelementptr inbounds nuw i8, ptr %2, i64 8
  %13 = load ptr, ptr %12, align 8, !tbaa !4
  %14 = ptrtoint ptr %13 to i64
  %15 = and i64 %14, 1
  %.not = icmp eq i64 %15, 0
  br i1 %.not, label %16, label %lean_inc.exit

16:                                               ; preds = %11
  %.val.i17 = load i32, ptr %13, align 4, !tbaa !8
  %17 = icmp sgt i32 %.val.i17, 0
  br i1 %17, label %18, label %20, !prof !11

18:                                               ; preds = %16
  %19 = add nuw i32 %.val.i17, 1
  store i32 %19, ptr %13, align 4, !tbaa !8
  br label %lean_inc.exit

20:                                               ; preds = %16
  %.not.i18 = icmp eq i32 %.val.i17, 0
  br i1 %.not.i18, label %lean_inc.exit, label %21

21:                                               ; preds = %20
  tail call void @lean_inc_ref_cold(ptr noundef nonnull %13) #9
  br label %lean_inc.exit

lean_inc.exit:                                    ; preds = %21, %20, %18, %11
  br i1 %.not.i16, label %22, label %lean_dec.exit13

22:                                               ; preds = %lean_inc.exit
  %23 = load i32, ptr %2, align 4, !tbaa !8
  %24 = icmp sgt i32 %23, 1
  br i1 %24, label %25, label %27, !prof !11

25:                                               ; preds = %22
  %26 = add nsw i32 %23, -1
  store i32 %26, ptr %2, align 4, !tbaa !8
  br label %lean_dec.exit13

27:                                               ; preds = %22
  %.not.i = icmp eq i32 %23, 0
  br i1 %.not.i, label %lean_dec.exit13, label %28

28:                                               ; preds = %27
  tail call void @lean_dec_ref_cold(ptr noundef nonnull %2) #9
  br label %lean_dec.exit13

lean_dec.exit13:                                  ; preds = %28, %27, %25, %lean_inc.exit
  tail call void @lean_inc_heartbeat() #9
  %29 = tail call noalias ptr @mi_malloc_small(i64 noundef 16) #9
  %30 = icmp eq ptr %29, null
  br i1 %30, label %31, label %lean_alloc_ctor.exit

31:                                               ; preds = %lean_dec.exit13
  tail call void @lean_internal_panic_out_of_memory() #10
  unreachable

lean_alloc_ctor.exit:                             ; preds = %lean_dec.exit13
  %32 = getelementptr inbounds nuw i8, ptr %29, i64 4
  store i32 1, ptr %29, align 4, !tbaa !8
  store i32 65552, ptr %32, align 4
  %33 = getelementptr inbounds nuw i8, ptr %29, i64 8
  store ptr %13, ptr %33, align 8, !tbaa !4
  br label %41

.thread:                                          ; preds = %lean_obj_tag.exit.thread
  %34 = load i32, ptr %2, align 4, !tbaa !8
  %35 = icmp sgt i32 %34, 1
  br i1 %35, label %36, label %38, !prof !11

36:                                               ; preds = %.thread
  %37 = add nsw i32 %34, -1
  store i32 %37, ptr %2, align 4, !tbaa !8
  br label %lean_dec.exit

38:                                               ; preds = %.thread
  %.not.i14 = icmp eq i32 %34, 0
  br i1 %.not.i14, label %lean_dec.exit, label %39

39:                                               ; preds = %38
  tail call void @lean_dec_ref_cold(ptr noundef nonnull %2) #9
  br label %lean_dec.exit

lean_dec.exit:                                    ; preds = %lean_obj_tag.exit, %39, %38, %36
  %40 = load ptr, ptr @l_Lean_Lsp_instFromJsonCompletionItemTag___closed__1, align 8, !tbaa !4
  br label %41

41:                                               ; preds = %lean_alloc_ctor.exit, %9, %lean_dec.exit
  %.1 = phi ptr [ %40, %lean_dec.exit ], [ %29, %lean_alloc_ctor.exit ], [ %2, %9 ]
  ret ptr %.1
}